target datalayout = "e-m:e-p270:32:32-p271:32:32-p272:64:64-i64:64-i128:128-f80:128-n8:16:32:64-S128"
target triple = "x86_64-pc-linux-gnu"

%struct.ForEachState = type { ptr, i32 }
%struct.List = type { i32, i32, i32, ptr, [0 x %union.ListCell] }
%union.ListCell = type { ptr }
%struct.OpFamilyMember = type { i8, i32, i32, i32, i32, i32, i8, i8, i32 }

@.str.1 = private unnamed_addr constant [15 x i8] c"gistvalidate.c\00", align 1
@.str.3 = private unnamed_addr constant [5 x i8] c"gist\00", align 1
@.str.11 = private unnamed_addr constant [59 x i8] c"support function number %d is invalid for access method %s\00", align 1
@__func__.gistadjustmembers = private unnamed_addr constant [18 x i8] c"gistadjustmembers\00", align 1

; Function Attrs: nounwind uwtable
define dso_local void @gistadjustmembers(i32 noundef %0, i32 noundef %1, ptr noundef %2, ptr noundef %3) #0 {
  %5 = alloca i32, align 4
  %6 = alloca i32, align 4
  %7 = alloca ptr, align 8
  %8 = alloca ptr, align 8
  %9 = alloca ptr, align 8
  %10 = alloca %struct.ForEachState, align 8
  %11 = alloca ptr, align 8
  %12 = alloca %struct.ForEachState, align 8
  %13 = alloca ptr, align 8
  store i32 %0, ptr %5, align 4
  store i32 %1, ptr %6, align 4
  store ptr %2, ptr %7, align 8
  store ptr %3, ptr %8, align 8
  call void @llvm.lifetime.start.p0(i64 8, ptr %9) #6
  call void @llvm.lifetime.start.p0(i64 16, ptr %10) #6
  %14 = getelementptr inbounds nuw %struct.ForEachState, ptr %10, i32 0, i32 0
  %15 = load ptr, ptr %7, align 8
  store ptr %15, ptr %14, align 8
  %16 = getelementptr inbounds nuw %struct.ForEachState, ptr %10, i32 0, i32 1
  store i32 0, ptr %16, align 8
  %17 = getelementptr i8, ptr %10, i64 12
  call void @llvm.memset.p0.i64(ptr align 4 %17, i8 0, i64 4, i1 false)
  br label %18

18:                                               ; preds = %54, %4
  %19 = getelementptr inbounds nuw %struct.ForEachState, ptr %10, i32 0, i32 0
  %20 = load ptr, ptr %19, align 8
  %21 = icmp ne ptr %20, null
  br i1 %21, label %22, label %39

22:                                               ; preds = %18
  %23 = getelementptr inbounds nuw %struct.ForEachState, ptr %10, i32 0, i32 1
  %24 = load i32, ptr %23, align 8
  %25 = getelementptr inbounds nuw %struct.ForEachState, ptr %10, i32 0, i32 0
  %26 = load ptr, ptr %25, align 8
  %27 = getelementptr inbounds nuw %struct.List, ptr %26, i32 0, i32 1
  %28 = load i32, ptr %27, align 4
  %29 = icmp slt i32 %24, %28
  br i1 %29, label %30, label %39

30:                                               ; preds = %22
  %31 = getelementptr inbounds nuw %struct.ForEachState, ptr %10, i32 0, i32 0
  %32 = load ptr, ptr %31, align 8
  %33 = getelementptr inbounds nuw %struct.List, ptr %32, i32 0, i32 3
  %34 = load ptr, ptr %33, align 8
  %35 = getelementptr inbounds nuw %struct.ForEachState, ptr %10, i32 0, i32 1
  %36 = load i32, ptr %35, align 8
  %37 = sext i32 %36 to i64
  %38 = getelementptr inbounds %union.ListCell, ptr %34, i64 %37
  store ptr %38, ptr %9, align 8
  br label %40

39:                                               ; preds = %22, %18
  store ptr null, ptr %9, align 8
  br label %40

40:                                               ; preds = %39, %30
  %41 = phi i32 [ 1, %30 ], [ 0, %39 ]
  %42 = icmp ne i32 %41, 0
  br i1 %42, label %44, label %43

43:                                               ; preds = %40
  call void @llvm.lifetime.end.p0(i64 16, ptr %10) #6
  br label %58

44:                                               ; preds = %40
  call void @llvm.lifetime.start.p0(i64 8, ptr %11) #6
  %45 = load ptr, ptr %9, align 8
  %46 = load ptr, ptr %45, align 8
  store ptr %46, ptr %11, align 8
  %47 = load ptr, ptr %11, align 8
  %48 = getelementptr inbounds nuw %struct.OpFamilyMember, ptr %47, i32 0, i32 6
  store i8 0, ptr %48, align 4
  %49 = load ptr, ptr %11, align 8
  %50 = getelementptr inbounds nuw %struct.OpFamilyMember, ptr %49, i32 0, i32 7
  store i8 1, ptr %50, align 1
  %51 = load i32, ptr %5, align 4
  %52 = load ptr, ptr %11, align 8
  %53 = getelementptr inbounds nuw %struct.OpFamilyMember, ptr %52, i32 0, i32 8
  store i32 %51, ptr %53, align 4
  call void @llvm.lifetime.end.p0(i64 8, ptr %11) #6
  br label %54

54:                                               ; preds = %44
  %55 = getelementptr inbounds nuw %struct.ForEachState, ptr %10, i32 0, i32 1
  %56 = load i32, ptr %55, align 8
  %57 = add i32 %56, 1
  store i32 %57, ptr %55, align 8
  br label %18, !llvm.loop !11

58:                                               ; preds = %43
  call void @llvm.lifetime.start.p0(i64 16, ptr %12) #6
  %59 = getelementptr inbounds nuw %struct.ForEachState, ptr %12, i32 0, i32 0
  %60 = load ptr, ptr %8, align 8
  store ptr %60, ptr %59, align 8
  %61 = getelementptr inbounds nuw %struct.ForEachState, ptr %12, i32 0, i32 1
  store i32 0, ptr %61, align 8
  %62 = getelementptr i8, ptr %12, i64 12
  call void @llvm.memset.p0.i64(ptr align 4 %62, i8 0, i64 4, i1 false)
  br label %63

63:                                               ; preds = %122, %58
  %64 = getelementptr inbounds nuw %struct.ForEachState, ptr %12, i32 0, i32 0
  %65 = load ptr, ptr %64, align 8
  %66 = icmp ne ptr %65, null
  br i1 %66, label %67, label %84

67:                                               ; preds = %63
  %68 = getelementptr inbounds nuw %struct.ForEachState, ptr %12, i32 0, i32 1
  %69 = load i32, ptr %68, align 8
  %70 = getelementptr inbounds nuw %struct.ForEachState, ptr %12, i32 0, i32 0
  %71 = load ptr, ptr %70, align 8
  %72 = getelementptr inbounds nuw %struct.List, ptr %71, i32 0, i32 1
  %73 = load i32, ptr %72, align 4
  %74 = icmp slt i32 %69, %73
  br i1 %74, label %75, label %84

75:                                               ; preds = %67
  %76 = getelementptr inbounds nuw %struct.ForEachState, ptr %12, i32 0, i32 0
  %77 = load ptr, ptr %76, align 8
  %78 = getelementptr inbounds nuw %struct.List, ptr %77, i32 0, i32 3
  %79 = load ptr, ptr %78, align 8
  %80 = getelementptr inbounds nuw %struct.ForEachState, ptr %12, i32 0, i32 1
  %81 = load i32, ptr %80, align 8
  %82 = sext i32 %81 to i64
  %83 = getelementptr inbounds %union.ListCell, ptr %79, i64 %82
  store ptr %83, ptr %9, align 8
  br label %85

84:                                               ; preds = %67, %63
  store ptr null, ptr %9, align 8
  br label %85

85:                                               ; preds = %84, %75
  %86 = phi i32 [ 1, %75 ], [ 0, %84 ]
  %87 = icmp ne i32 %86, 0
  br i1 %87, label %89, label %88

88:                                               ; preds = %85
  call void @llvm.lifetime.end.p0(i64 16, ptr %12) #6
  br label %126

89:                                               ; preds = %85
  call void @llvm.lifetime.start.p0(i64 8, ptr %13) #6
  %90 = load ptr, ptr %9, align 8
  %91 = load ptr, ptr %90, align 8
  store ptr %91, ptr %13, align 8
  %92 = load ptr, ptr %13, align 8
  %93 = getelementptr inbounds nuw %struct.OpFamilyMember, ptr %92, i32 0, i32 2
  %94 = load i32, ptr %93, align 4
  switch i32 %94, label %106 [
    i32 1, label %95
    i32 2, label %95
    i32 5, label %95
    i32 6, label %95
    i32 7, label %95
    i32 3, label %98
    i32 4, label %98
    i32 8, label %98
    i32 9, label %98
    i32 10, label %98
    i32 11, label %98
    i32 12, label %98
  ]

95:                                               ; preds = %89, %89, %89, %89, %89
  %96 = load ptr, ptr %13, align 8
  %97 = getelementptr inbounds nuw %struct.OpFamilyMember, ptr %96, i32 0, i32 6
  store i8 1, ptr %97, align 4
  br label %121

98:                                               ; preds = %89, %89, %89, %89, %89, %89, %89
  %99 = load ptr, ptr %13, align 8
  %100 = getelementptr inbounds nuw %struct.OpFamilyMember, ptr %99, i32 0, i32 6
  store i8 0, ptr %100, align 4
  %101 = load ptr, ptr %13, align 8
  %102 = getelementptr inbounds nuw %struct.OpFamilyMember, ptr %101, i32 0, i32 7
  store i8 1, ptr %102, align 1
  %103 = load i32, ptr %5, align 4
  %104 = load ptr, ptr %13, align 8
  %105 = getelementptr inbounds nuw %struct.OpFamilyMember, ptr %104, i32 0, i32 8
  store i32 %103, ptr %105, align 4
  br label %121

106:                                              ; preds = %89
  br label %107

107:                                              ; preds = %106
  br i1 true, label %108, label %110

108:                                              ; preds = %107
  %109 = call zeroext i1 @errstart_cold(i32 noundef 21, ptr noundef null) #7
  br i1 %109, label %112, label %118

110:                                              ; preds = %107
  %111 = call zeroext i1 @errstart(i32 noundef 21, ptr noundef null)
  br i1 %111, label %112, label %118

112:                                              ; preds = %110, %108
  %113 = call i32 @errcode(i32 noundef 117833860)
  %114 = load ptr, ptr %13, align 8
  %115 = getelementptr inbounds nuw %struct.OpFamilyMember, ptr %114, i32 0, i32 2
  %116 = load i32, ptr %115, align 4
  %117 = call i32 (ptr, ...) @errmsg(ptr noundef @.str.11, i32 noundef %116, ptr noundef @.str.3)
  call void @errfinish(ptr noundef @.str.1, i32 noundef 347, ptr noundef @__func__.gistadjustmembers)
  br label %118

118:                                              ; preds = %112, %110, %108
  unreachable

119:                                              ; No predecessors!
  br label %120

120:                                              ; preds = %119
  br label %121

121:                                              ; preds = %120, %98, %95
  call void @llvm.lifetime.end.p0(i64 8, ptr %13) #6
  br label %122

122:                                              ; preds = %121
  %123 = getelementptr inbounds nuw %struct.ForEachState, ptr %12, i32 0, i32 1
  %124 = load i32, ptr %123, align 8
  %125 = add i32 %124, 1
  store i32 %125, ptr %123, align 8
  br label %63, !llvm.loop !12

126:                                              ; preds = %88
  call void @llvm.lifetime.end.p0(i64 8, ptr %9) #6
  ret void
}