; Function Attrs: nounwind uwtable
define dso_local void @gistadjustmembers(i32 noundef %0, i32 noundef %1, ptr noundef readonly captures(address_is_null) %2, ptr noundef readonly captures(address_is_null) %3) local_unnamed_addr #0 {
  %5 = getelementptr inbounds nuw i8, ptr %2, i64 4
  %.not = icmp eq ptr %2, null
  br i1 %.not, label %._crit_edge37, label %.lr.ph

.lr.ph:                                           ; preds = %4
  %6 = getelementptr inbounds nuw i8, ptr %2, i64 16
  %7 = load i32, ptr %5, align 4
  %8 = icmp sgt i32 %7, 0
  br i1 %8, label %.lr.ph39, label %._crit_edge37

._crit_edge37:                                    ; preds = %.lr.ph39, %.lr.ph, %4
  %.not28 = icmp eq ptr %3, null
  br i1 %.not28, label %._crit_edge44, label %.lr.ph43

.lr.ph43:                                         ; preds = %._crit_edge37
  %9 = getelementptr inbounds nuw i8, ptr %3, i64 4
  %10 = getelementptr inbounds nuw i8, ptr %3, i64 16
  %11 = load i32, ptr %9, align 4
  %12 = icmp sgt i32 %11, 0
  br i1 %12, label %.lr.ph47, label %._crit_edge44

.lr.ph39:                                         ; preds = %.lr.ph, %.lr.ph39
  %indvars.iv = phi i64 [ %indvars.iv.next, %.lr.ph39 ], [ 0, %.lr.ph ]
  %13 = load ptr, ptr %6, align 8
  %14 = getelementptr inbounds nuw %union.ListCell, ptr %13, i64 %indvars.iv
  %15 = load ptr, ptr %14, align 8
  %16 = getelementptr inbounds nuw i8, ptr %15, i64 24
  store i8 0, ptr %16, align 4
  %17 = getelementptr inbounds nuw i8, ptr %15, i64 25
  store i8 1, ptr %17, align 1
  %18 = getelementptr inbounds nuw i8, ptr %15, i64 28
  store i32 %0, ptr %18, align 4
  %indvars.iv.next = add nuw nsw i64 %indvars.iv, 1
  %19 = load i32, ptr %5, align 4
  %20 = sext i32 %19 to i64
  %21 = icmp slt i64 %indvars.iv.next, %20
  br i1 %21, label %.lr.ph39, label %._crit_edge37

._crit_edge44:                                    ; preds = %38, %.lr.ph43, %._crit_edge37
  ret void

.lr.ph47:                                         ; preds = %.lr.ph43, %38
  %indvars.iv50 = phi i64 [ %indvars.iv.next51, %38 ], [ 0, %.lr.ph43 ]
  %22 = load ptr, ptr %10, align 8
  %23 = getelementptr inbounds nuw %union.ListCell, ptr %22, i64 %indvars.iv50
  %24 = load ptr, ptr %23, align 8
  %25 = getelementptr inbounds nuw i8, ptr %24, i64 8
  %26 = load i32, ptr %25, align 4
  switch i32 %26, label %.split [
    i32 1, label %27
    i32 2, label %27
    i32 5, label %27
    i32 6, label %27
    i32 7, label %27
    i32 3, label %29
    i32 4, label %29
    i32 8, label %29
    i32 9, label %29
    i32 10, label %29
    i32 11, label %29
    i32 12, label %29
  ]

27:                                               ; preds = %.lr.ph47, %.lr.ph47, %.lr.ph47, %.lr.ph47, %.lr.ph47
  %28 = getelementptr inbounds nuw i8, ptr %24, i64 24
  store i8 1, ptr %28, align 4
  br label %38

29:                                               ; preds = %.lr.ph47, %.lr.ph47, %.lr.ph47, %.lr.ph47, %.lr.ph47, %.lr.ph47, %.lr.ph47
  %30 = getelementptr inbounds nuw i8, ptr %24, i64 24
  store i8 0, ptr %30, align 4
  %31 = getelementptr inbounds nuw i8, ptr %24, i64 25
  store i8 1, ptr %31, align 1
  %32 = getelementptr inbounds nuw i8, ptr %24, i64 28
  store i32 %0, ptr %32, align 4
  br label %38

.split:                                           ; preds = %.lr.ph47
  %33 = getelementptr inbounds nuw i8, ptr %24, i64 8
  %34 = tail call zeroext i1 @errstart_cold(i32 noundef 21, ptr noundef null) #5
  tail call void @llvm.assume(i1 %34)
  %35 = tail call i32 @errcode(i32 noundef 117833860) #4
  %36 = load i32, ptr %33, align 4
  %37 = tail call i32 (ptr, ...) @errmsg(ptr noundef nonnull @.str.11, i32 noundef %36, ptr noundef nonnull @.str.3) #4
  tail call void @errfinish(ptr noundef nonnull @.str.1, i32 noundef 347, ptr noundef nonnull @__func__.gistadjustmembers) #4
  unreachable

38:                                               ; preds = %29, %27
  %indvars.iv.next51 = add nuw nsw i64 %indvars.iv50, 1
  %39 = load i32, ptr %9, align 4
  %40 = sext i32 %39 to i64
  %41 = icmp slt i64 %indvars.iv.next51, %40
  br i1 %41, label %.lr.ph47, label %._crit_edge44
}